target datalayout = "e-m:e-p270:32:32-p271:32:32-p272:64:64-i64:64-i128:128-f80:128-n8:16:32:64-S128"
target triple = "x86_64-pc-linux-gnu"

@hf_ipmi_se_23_rs_next_reading = internal global i32 0, align 4
@hf_ipmi_se_23_m = internal global i32 0, align 4
@hf_ipmi_se_23_tolerance = internal global i32 0, align 4
@hf_ipmi_se_23_b = internal global i32 0, align 4
@hf_ipmi_se_23_accuracy = internal global i32 0, align 4
@hf_ipmi_se_23_accuracy_exponent = internal global i32 0, align 4
@hf_ipmi_se_23_r_exponent = internal global i32 0, align 4
@hf_ipmi_se_23_b_exponent = internal global i32 0, align 4
@ett_ipmi_se_23_readingfactors = internal global i32 0, align 4
@.str.1174 = private unnamed_addr constant [51 x i8] c"Factors: M=%d B=%d K1=%d K2=%d Acc=%u*10^%u Tol=%u\00", align 1

; Function Attrs: inlinehint nounwind null_pointer_is_valid sspstrong uwtable
define internal signext i16 @sign_extend(i16 noundef signext %0, i32 noundef %1) #4 {
  %3 = alloca i16, align 2
  %4 = alloca i16, align 2
  %5 = alloca i32, align 4
  store i16 %0, ptr %4, align 2
  store i32 %1, ptr %5, align 4
  %6 = load i16, ptr %4, align 2
  %7 = sext i16 %6 to i32
  %8 = load i32, ptr %5, align 4
  %9 = sub i32 %8, 1
  %10 = shl i32 1, %9
  %11 = and i32 %7, %10
  %12 = icmp eq i32 %11, 0
  br i1 %12, label %13, label %15

13:                                               ; preds = %2
  %14 = load i16, ptr %4, align 2
  store i16 %14, ptr %3, align 2
  br label %22

15:                                               ; preds = %2
  %16 = load i16, ptr %4, align 2
  %17 = sext i16 %16 to i32
  %18 = load i32, ptr %5, align 4
  %19 = shl i32 65535, %18
  %20 = or i32 %17, %19
  %21 = trunc i32 %20 to i16
  store i16 %21, ptr %3, align 2
  br label %22

22:                                               ; preds = %15, %13
  %23 = load i16, ptr %3, align 2
  ret i16 %23
}

; Function Attrs: null_pointer_is_valid sspstrong uwtable
define internal void @rs23(ptr noundef %0, ptr noundef %1, ptr noundef %2) #0 {
  %4 = alloca ptr, align 8
  %5 = alloca ptr, align 8
  %6 = alloca ptr, align 8
  %7 = alloca ptr, align 8
  %8 = alloca i16, align 2
  %9 = alloca i16, align 2
  %10 = alloca i16, align 2
  %11 = alloca i16, align 2
  %12 = alloca i16, align 2
  %13 = alloca i16, align 2
  %14 = alloca i16, align 2
  %15 = alloca i16, align 2
  store ptr %0, ptr %4, align 8
  store ptr %1, ptr %5, align 8
  store ptr %2, ptr %6, align 8
  call void @llvm.lifetime.start.p0(i64 8, ptr %7) #5
  call void @llvm.lifetime.start.p0(i64 2, ptr %8) #5
  call void @llvm.lifetime.start.p0(i64 2, ptr %9) #5
  call void @llvm.lifetime.start.p0(i64 2, ptr %10) #5
  call void @llvm.lifetime.start.p0(i64 2, ptr %11) #5
  call void @llvm.lifetime.start.p0(i64 2, ptr %12) #5
  call void @llvm.lifetime.start.p0(i64 2, ptr %13) #5
  call void @llvm.lifetime.start.p0(i64 2, ptr %14) #5
  call void @llvm.lifetime.start.p0(i64 2, ptr %15) #5
  %16 = load ptr, ptr %6, align 8
  %17 = load i32, ptr @hf_ipmi_se_23_rs_next_reading, align 4
  %18 = load ptr, ptr %4, align 8
  %19 = call ptr @proto_tree_add_item(ptr noundef %16, i32 noundef %17, ptr noundef %18, i32 noundef 0, i32 noundef 1, i32 noundef -2147483648)
  %20 = load ptr, ptr %4, align 8
  %21 = call zeroext i8 @tvb_get_uint8(ptr noundef %20, i32 noundef 1)
  %22 = zext i8 %21 to i16
  store i16 %22, ptr %12, align 2
  %23 = load ptr, ptr %4, align 8
  %24 = call zeroext i8 @tvb_get_uint8(ptr noundef %23, i32 noundef 2)
  %25 = zext i8 %24 to i16
  store i16 %25, ptr %11, align 2
  %26 = load i16, ptr %11, align 2
  %27 = zext i16 %26 to i32
  %28 = and i32 %27, 192
  %29 = shl i32 %28, 2
  %30 = load i16, ptr %12, align 2
  %31 = sext i16 %30 to i32
  %32 = or i32 %31, %29
  %33 = trunc i32 %32 to i16
  store i16 %33, ptr %12, align 2
  %34 = load i16, ptr %11, align 2
  %35 = zext i16 %34 to i32
  %36 = and i32 %35, 63
  %37 = trunc i32 %36 to i16
  store i16 %37, ptr %8, align 2
  %38 = load ptr, ptr %4, align 8
  %39 = call zeroext i8 @tvb_get_uint8(ptr noundef %38, i32 noundef 3)
  %40 = zext i8 %39 to i16
  store i16 %40, ptr %13, align 2
  %41 = load ptr, ptr %4, align 8
  %42 = call zeroext i8 @tvb_get_uint8(ptr noundef %41, i32 noundef 4)
  %43 = zext i8 %42 to i16
  store i16 %43, ptr %11, align 2
  %44 = load i16, ptr %11, align 2
  %45 = zext i16 %44 to i32
  %46 = and i32 %45, 192
  %47 = shl i32 %46, 2
  %48 = load i16, ptr %13, align 2
  %49 = sext i16 %48 to i32
  %50 = or i32 %49, %47
  %51 = trunc i32 %50 to i16
  store i16 %51, ptr %13, align 2
  %52 = load i16, ptr %11, align 2
  %53 = zext i16 %52 to i32
  %54 = and i32 %53, 63
  %55 = trunc i32 %54 to i16
  store i16 %55, ptr %9, align 2
  %56 = load ptr, ptr %4, align 8
  %57 = call zeroext i8 @tvb_get_uint8(ptr noundef %56, i32 noundef 5)
  %58 = zext i8 %57 to i16
  store i16 %58, ptr %11, align 2
  %59 = load i16, ptr %11, align 2
  %60 = zext i16 %59 to i32
  %61 = and i32 %60, 240
  %62 = shl i32 %61, 4
  %63 = load i16, ptr %9, align 2
  %64 = zext i16 %63 to i32
  %65 = or i32 %64, %62
  %66 = trunc i32 %65 to i16
  store i16 %66, ptr %9, align 2
  %67 = load i16, ptr %11, align 2
  %68 = zext i16 %67 to i32
  %69 = and i32 %68, 12
  %70 = ashr i32 %69, 2
  %71 = trunc i32 %70 to i16
  store i16 %71, ptr %10, align 2
  %72 = load ptr, ptr %4, align 8
  %73 = call zeroext i8 @tvb_get_uint8(ptr noundef %72, i32 noundef 6)
  %74 = zext i8 %73 to i16
  store i16 %74, ptr %11, align 2
  %75 = load i16, ptr %11, align 2
  %76 = zext i16 %75 to i32
  %77 = and i32 %76, 240
  %78 = ashr i32 %77, 4
  %79 = trunc i32 %78 to i16
  store i16 %79, ptr %15, align 2
  %80 = load i16, ptr %11, align 2
  %81 = zext i16 %80 to i32
  %82 = and i32 %81, 15
  %83 = trunc i32 %82 to i16
  store i16 %83, ptr %14, align 2
  %84 = load i16, ptr %12, align 2
  %85 = call signext i16 @sign_extend(i16 noundef signext %84, i32 noundef 10)
  store i16 %85, ptr %12, align 2
  %86 = load i16, ptr %13, align 2
  %87 = call signext i16 @sign_extend(i16 noundef signext %86, i32 noundef 10)
  store i16 %87, ptr %13, align 2
  %88 = load i16, ptr %14, align 2
  %89 = call signext i16 @sign_extend(i16 noundef signext %88, i32 noundef 4)
  store i16 %89, ptr %14, align 2
  %90 = load i16, ptr %15, align 2
  %91 = call signext i16 @sign_extend(i16 noundef signext %90, i32 noundef 4)
  store i16 %91, ptr %15, align 2
  %92 = load ptr, ptr %6, align 8
  %93 = load ptr, ptr %4, align 8
  %94 = load i32, ptr @ett_ipmi_se_23_readingfactors, align 4
  %95 = load i16, ptr %12, align 2
  %96 = sext i16 %95 to i32
  %97 = load i16, ptr %13, align 2
  %98 = sext i16 %97 to i32
  %99 = load i16, ptr %14, align 2
  %100 = sext i16 %99 to i32
  %101 = load i16, ptr %15, align 2
  %102 = sext i16 %101 to i32
  %103 = load i16, ptr %9, align 2
  %104 = zext i16 %103 to i32
  %105 = load i16, ptr %10, align 2
  %106 = zext i16 %105 to i32
  %107 = load i16, ptr %8, align 2
  %108 = zext i16 %107 to i32
  %109 = call ptr (ptr, ptr, i32, i32, i32, ptr, ptr, ...) @proto_tree_add_subtree_format(ptr noundef %92, ptr noundef %93, i32 noundef 1, i32 noundef 6, i32 noundef %94, ptr noundef null, ptr noundef @.str.1174, i32 noundef %96, i32 noundef %98, i32 noundef %100, i32 noundef %102, i32 noundef %104, i32 noundef %106, i32 noundef %108)
  store ptr %109, ptr %7, align 8
  %110 = load ptr, ptr %7, align 8
  %111 = load i32, ptr @hf_ipmi_se_23_m, align 4
  %112 = load ptr, ptr %4, align 8
  %113 = call ptr @proto_tree_add_item(ptr noundef %110, i32 noundef %111, ptr noundef %112, i32 noundef 1, i32 noundef 2, i32 noundef -2147483648)
  %114 = load ptr, ptr %7, align 8
  %115 = load i32, ptr @hf_ipmi_se_23_tolerance, align 4
  %116 = load ptr, ptr %4, align 8
  %117 = call ptr @proto_tree_add_item(ptr noundef %114, i32 noundef %115, ptr noundef %116, i32 noundef 1, i32 noundef 2, i32 noundef -2147483648)
  %118 = load ptr, ptr %7, align 8
  %119 = load i32, ptr @hf_ipmi_se_23_b, align 4
  %120 = load ptr, ptr %4, align 8
  %121 = call ptr @proto_tree_add_item(ptr noundef %118, i32 noundef %119, ptr noundef %120, i32 noundef 3, i32 noundef 2, i32 noundef -2147483648)
  %122 = load ptr, ptr %7, align 8
  %123 = load i32, ptr @hf_ipmi_se_23_accuracy, align 4
  %124 = load ptr, ptr %4, align 8
  %125 = call ptr @proto_tree_add_item(ptr noundef %122, i32 noundef %123, ptr noundef %124, i32 noundef 4, i32 noundef 2, i32 noundef -2147483648)
  %126 = load ptr, ptr %7, align 8
  %127 = load i32, ptr @hf_ipmi_se_23_accuracy_exponent, align 4
  %128 = load ptr, ptr %4, align 8
  %129 = call ptr @proto_tree_add_item(ptr noundef %126, i32 noundef %127, ptr noundef %128, i32 noundef 5, i32 noundef 1, i32 noundef -2147483648)
  %130 = load ptr, ptr %7, align 8
  %131 = load i32, ptr @hf_ipmi_se_23_r_exponent, align 4
  %132 = load ptr, ptr %4, align 8
  %133 = call ptr @proto_tree_add_item(ptr noundef %130, i32 noundef %131, ptr noundef %132, i32 noundef 6, i32 noundef 1, i32 noundef -2147483648)
  %134 = load ptr, ptr %7, align 8
  %135 = load i32, ptr @hf_ipmi_se_23_b_exponent, align 4
  %136 = load ptr, ptr %4, align 8
  %137 = call ptr @proto_tree_add_item(ptr noundef %134, i32 noundef %135, ptr noundef %136, i32 noundef 6, i32 noundef 1, i32 noundef -2147483648)
  call void @llvm.lifetime.end.p0(i64 2, ptr %15) #5
  call void @llvm.lifetime.end.p0(i64 2, ptr %14) #5
  call void @llvm.lifetime.end.p0(i64 2, ptr %13) #5
  call void @llvm.lifetime.end.p0(i64 2, ptr %12) #5
  call void @llvm.lifetime.end.p0(i64 2, ptr %11) #5
  call void @llvm.lifetime.end.p0(i64 2, ptr %10) #5
  call void @llvm.lifetime.end.p0(i64 2, ptr %9) #5
  call void @llvm.lifetime.end.p0(i64 2, ptr %8) #5
  call void @llvm.lifetime.end.p0(i64 8, ptr %7) #5
  ret void
}