; Function Attrs: null_pointer_is_valid sspstrong uwtable
define internal void @rs23(ptr noundef %0, ptr readnone captures(none) %1, ptr noundef %2) #0 {
  %4 = load i32, ptr @hf_ipmi_se_23_rs_next_reading, align 4
  %5 = tail call ptr @proto_tree_add_item(ptr noundef %2, i32 noundef %4, ptr noundef %0, i32 noundef 0, i32 noundef 1, i32 noundef -2147483648)
  %6 = tail call zeroext i8 @tvb_get_uint8(ptr noundef %0, i32 noundef 1)
  %7 = tail call zeroext i8 @tvb_get_uint8(ptr noundef %0, i32 noundef 2)
  %8 = zext i8 %7 to i16
  %9 = shl nuw nsw i16 %8, 2
  %10 = and i16 %9, 768
  %11 = zext i8 %6 to i16
  %12 = and i8 %7, 63
  %13 = tail call zeroext i8 @tvb_get_uint8(ptr noundef %0, i32 noundef 3)
  %14 = tail call zeroext i8 @tvb_get_uint8(ptr noundef %0, i32 noundef 4)
  %15 = zext i8 %14 to i16
  %16 = shl nuw nsw i16 %15, 2
  %17 = and i16 %16, 768
  %18 = zext i8 %13 to i16
  %19 = and i8 %14, 63
  %20 = tail call zeroext i8 @tvb_get_uint8(ptr noundef %0, i32 noundef 5)
  %21 = zext i8 %20 to i32
  %22 = shl nuw nsw i32 %21, 4
  %23 = and i32 %22, 3840
  %24 = zext nneg i8 %19 to i32
  %25 = or disjoint i32 %23, %24
  %26 = lshr i8 %20, 2
  %27 = and i8 %26, 3
  %28 = tail call zeroext i8 @tvb_get_uint8(ptr noundef %0, i32 noundef 6)
  %29 = lshr i8 %28, 4
  %30 = zext nneg i8 %29 to i32
  %31 = and i8 %28, 15
  %32 = zext nneg i8 %31 to i32
  %33 = icmp sgt i8 %7, -1
  %34 = select i1 %33, i16 0, i16 -1024
  %35 = or disjoint i16 %34, %11
  %.0.i = or disjoint i16 %35, %10
  %36 = icmp sgt i8 %14, -1
  %37 = select i1 %36, i16 0, i16 -1024
  %38 = or disjoint i16 %37, %18
  %.0.i45 = or disjoint i16 %38, %17
  %39 = and i8 %28, 8
  %40 = icmp eq i8 %39, 0
  %41 = select i1 %40, i32 0, i32 -16
  %.0.i46 = or disjoint i32 %41, %32
  %42 = icmp sgt i8 %28, -1
  %43 = select i1 %42, i32 0, i32 -16
  %.0.i47 = or disjoint i32 %43, %30
  %44 = load i32, ptr @ett_ipmi_se_23_readingfactors, align 4
  %45 = sext i16 %.0.i to i32
  %46 = sext i16 %.0.i45 to i32
  %47 = zext nneg i8 %27 to i32
  %48 = zext nneg i8 %12 to i32
  %49 = tail call ptr (ptr, ptr, i32, i32, i32, ptr, ptr, ...) @proto_tree_add_subtree_format(ptr noundef %2, ptr noundef %0, i32 noundef 1, i32 noundef 6, i32 noundef %44, ptr noundef null, ptr noundef nonnull @.str.1174, i32 noundef %45, i32 noundef %46, i32 noundef %.0.i46, i32 noundef %.0.i47, i32 noundef %25, i32 noundef %47, i32 noundef %48)
  %50 = load i32, ptr @hf_ipmi_se_23_m, align 4
  %51 = tail call ptr @proto_tree_add_item(ptr noundef %49, i32 noundef %50, ptr noundef %0, i32 noundef 1, i32 noundef 2, i32 noundef -2147483648)
  %52 = load i32, ptr @hf_ipmi_se_23_tolerance, align 4
  %53 = tail call ptr @proto_tree_add_item(ptr noundef %49, i32 noundef %52, ptr noundef %0, i32 noundef 1, i32 noundef 2, i32 noundef -2147483648)
  %54 = load i32, ptr @hf_ipmi_se_23_b, align 4
  %55 = tail call ptr @proto_tree_add_item(ptr noundef %49, i32 noundef %54, ptr noundef %0, i32 noundef 3, i32 noundef 2, i32 noundef -2147483648)
  %56 = load i32, ptr @hf_ipmi_se_23_accuracy, align 4
  %57 = tail call ptr @proto_tree_add_item(ptr noundef %49, i32 noundef %56, ptr noundef %0, i32 noundef 4, i32 noundef 2, i32 noundef -2147483648)
  %58 = load i32, ptr @hf_ipmi_se_23_accuracy_exponent, align 4
  %59 = tail call ptr @proto_tree_add_item(ptr noundef %49, i32 noundef %58, ptr noundef %0, i32 noundef 5, i32 noundef 1, i32 noundef -2147483648)
  %60 = load i32, ptr @hf_ipmi_se_23_r_exponent, align 4
  %61 = tail call ptr @proto_tree_add_item(ptr noundef %49, i32 noundef %60, ptr noundef %0, i32 noundef 6, i32 noundef 1, i32 noundef -2147483648)
  %62 = load i32, ptr @hf_ipmi_se_23_b_exponent, align 4
  %63 = tail call ptr @proto_tree_add_item(ptr noundef %49, i32 noundef %62, ptr noundef %0, i32 noundef 6, i32 noundef 1, i32 noundef -2147483648)
  ret void
}